target datalayout = "e-m:e-p270:32:32-p271:32:32-p272:64:64-i64:64-i128:128-f80:128-n8:16:32:64-S128"
target triple = "x86_64-pc-linux-gnu"

%struct.t_enxblock = type { i32, i32, ptr, i32 }
%struct.t_enxsubblock = type { i32, i32, ptr, ptr, ptr, ptr, ptr, ptr, i32, i32, i32, i32, i32, i32 }

@.str.9 = private unnamed_addr constant [122 x i8] c"generated/home/dtcxzyw/WorkSpace/Projects/compilers/llvm-opt-benchmark/bench/gromacs/gromacs/src/gromacs/fileio/enxio.cpp\00", align 1
@.str.11 = private unnamed_addr constant [8 x i8] c"eb->sub\00", align 1

; Function Attrs: mustprogress nounwind uwtable
define internal void @_ZL16enxsubblock_initP13t_enxsubblock(ptr noundef %0) #0 {
  %2 = alloca ptr, align 8
  store ptr %0, ptr %2, align 8
  %3 = load ptr, ptr %2, align 8
  %4 = getelementptr inbounds %struct.t_enxsubblock, ptr %3, i32 0, i32 0
  store i32 0, ptr %4, align 8
  %5 = load ptr, ptr %2, align 8
  %6 = getelementptr inbounds %struct.t_enxsubblock, ptr %5, i32 0, i32 1
  store i32 1, ptr %6, align 4
  %7 = load ptr, ptr %2, align 8
  %8 = getelementptr inbounds %struct.t_enxsubblock, ptr %7, i32 0, i32 2
  store ptr null, ptr %8, align 8
  %9 = load ptr, ptr %2, align 8
  %10 = getelementptr inbounds %struct.t_enxsubblock, ptr %9, i32 0, i32 3
  store ptr null, ptr %10, align 8
  %11 = load ptr, ptr %2, align 8
  %12 = getelementptr inbounds %struct.t_enxsubblock, ptr %11, i32 0, i32 4
  store ptr null, ptr %12, align 8
  %13 = load ptr, ptr %2, align 8
  %14 = getelementptr inbounds %struct.t_enxsubblock, ptr %13, i32 0, i32 5
  store ptr null, ptr %14, align 8
  %15 = load ptr, ptr %2, align 8
  %16 = getelementptr inbounds %struct.t_enxsubblock, ptr %15, i32 0, i32 6
  store ptr null, ptr %16, align 8
  %17 = load ptr, ptr %2, align 8
  %18 = getelementptr inbounds %struct.t_enxsubblock, ptr %17, i32 0, i32 7
  store ptr null, ptr %18, align 8
  %19 = load ptr, ptr %2, align 8
  %20 = getelementptr inbounds %struct.t_enxsubblock, ptr %19, i32 0, i32 8
  store i32 0, ptr %20, align 8
  %21 = load ptr, ptr %2, align 8
  %22 = getelementptr inbounds %struct.t_enxsubblock, ptr %21, i32 0, i32 9
  store i32 0, ptr %22, align 4
  %23 = load ptr, ptr %2, align 8
  %24 = getelementptr inbounds %struct.t_enxsubblock, ptr %23, i32 0, i32 10
  store i32 0, ptr %24, align 8
  %25 = load ptr, ptr %2, align 8
  %26 = getelementptr inbounds %struct.t_enxsubblock, ptr %25, i32 0, i32 11
  store i32 0, ptr %26, align 4
  %27 = load ptr, ptr %2, align 8
  %28 = getelementptr inbounds %struct.t_enxsubblock, ptr %27, i32 0, i32 12
  store i32 0, ptr %28, align 8
  %29 = load ptr, ptr %2, align 8
  %30 = getelementptr inbounds %struct.t_enxsubblock, ptr %29, i32 0, i32 13
  store i32 0, ptr %30, align 4
  ret void
}

; Function Attrs: mustprogress uwtable
define internal void @_ZL15gmx_srenew_implI13t_enxsubblockEvPKcS2_iRPT_m(ptr noundef %0, ptr noundef %1, i32 noundef %2, ptr noundef nonnull align 8 dereferenceable(8) %3, i64 noundef %4) #1 {
  %6 = alloca ptr, align 8
  %7 = alloca ptr, align 8
  %8 = alloca i32, align 4
  %9 = alloca ptr, align 8
  %10 = alloca i64, align 8
  store ptr %0, ptr %6, align 8
  store ptr %1, ptr %7, align 8
  store i32 %2, ptr %8, align 4
  store ptr %3, ptr %9, align 8
  store i64 %4, ptr %10, align 8
  %11 = load ptr, ptr %6, align 8
  %12 = load ptr, ptr %7, align 8
  %13 = load i32, ptr %8, align 4
  %14 = load ptr, ptr %9, align 8
  %15 = load ptr, ptr %14, align 8
  %16 = load i64, ptr %10, align 8
  %17 = call noundef ptr @_Z12save_reallocPKcS0_iPvmm(ptr noundef %11, ptr noundef %12, i32 noundef %13, ptr noundef %15, i64 noundef %16, i64 noundef 80)
  %18 = load ptr, ptr %9, align 8
  store ptr %17, ptr %18, align 8
  ret void
}

; Function Attrs: mustprogress uwtable
define void @_Z22add_subblocks_enxblockP10t_enxblocki(ptr noundef %0, i32 noundef %1) #1 {
  %3 = alloca ptr, align 8
  %4 = alloca i32, align 4
  %5 = alloca i32, align 4
  store ptr %0, ptr %3, align 8
  store i32 %1, ptr %4, align 4
  %6 = load i32, ptr %4, align 4
  %7 = load ptr, ptr %3, align 8
  %8 = getelementptr inbounds %struct.t_enxblock, ptr %7, i32 0, i32 1
  store i32 %6, ptr %8, align 4
  %9 = load ptr, ptr %3, align 8
  %10 = getelementptr inbounds %struct.t_enxblock, ptr %9, i32 0, i32 1
  %11 = load i32, ptr %10, align 4
  %12 = load ptr, ptr %3, align 8
  %13 = getelementptr inbounds %struct.t_enxblock, ptr %12, i32 0, i32 3
  %14 = load i32, ptr %13, align 8
  %15 = icmp sgt i32 %11, %14
  br i1 %15, label %16, label %42

16:                                               ; preds = %2
  %17 = load ptr, ptr %3, align 8
  %18 = getelementptr inbounds %struct.t_enxblock, ptr %17, i32 0, i32 2
  %19 = load i32, ptr %4, align 4
  %20 = sext i32 %19 to i64
  call void @_ZL15gmx_srenew_implI13t_enxsubblockEvPKcS2_iRPT_m(ptr noundef @.str.11, ptr noundef @.str.9, i32 noundef 318, ptr noundef nonnull align 8 dereferenceable(8) %18, i64 noundef %20)
  %21 = load ptr, ptr %3, align 8
  %22 = getelementptr inbounds %struct.t_enxblock, ptr %21, i32 0, i32 3
  %23 = load i32, ptr %22, align 8
  store i32 %23, ptr %5, align 4
  br label %24

24:                                               ; preds = %35, %16
  %25 = load i32, ptr %5, align 4
  %26 = load i32, ptr %4, align 4
  %27 = icmp slt i32 %25, %26
  br i1 %27, label %28, label %38

28:                                               ; preds = %24
  %29 = load ptr, ptr %3, align 8
  %30 = getelementptr inbounds %struct.t_enxblock, ptr %29, i32 0, i32 2
  %31 = load ptr, ptr %30, align 8
  %32 = load i32, ptr %5, align 4
  %33 = sext i32 %32 to i64
  %34 = getelementptr inbounds %struct.t_enxsubblock, ptr %31, i64 %33
  call void @_ZL16enxsubblock_initP13t_enxsubblock(ptr noundef %34)
  br label %35

35:                                               ; preds = %28
  %36 = load i32, ptr %5, align 4
  %37 = add nsw i32 %36, 1
  store i32 %37, ptr %5, align 4
  br label %24, !llvm.loop !11

38:                                               ; preds = %24
  %39 = load i32, ptr %4, align 4
  %40 = load ptr, ptr %3, align 8
  %41 = getelementptr inbounds %struct.t_enxblock, ptr %40, i32 0, i32 3
  store i32 %39, ptr %41, align 8
  br label %42

42:                                               ; preds = %38, %2
  ret void
}