; Function Attrs: mustprogress uwtable
define void @_Z22add_subblocks_enxblockP10t_enxblocki(ptr nocapture noundef %0, i32 noundef %1) local_unnamed_addr #1 {
  %3 = getelementptr inbounds i8, ptr %0, i64 4
  store i32 %1, ptr %3, align 4
  %4 = getelementptr inbounds i8, ptr %0, i64 16
  %5 = load i32, ptr %4, align 8
  %6 = icmp slt i32 %5, %1
  br i1 %6, label %7, label %19

7:                                                ; preds = %2
  %8 = getelementptr inbounds i8, ptr %0, i64 8
  %9 = sext i32 %1 to i64
  %10 = load ptr, ptr %8, align 8
  %11 = tail call noundef ptr @_Z12save_reallocPKcS0_iPvmm(ptr noundef nonnull @.str.11, ptr noundef nonnull @.str.9, i32 noundef 318, ptr noundef %10, i64 noundef %9, i64 noundef 80)
  store ptr %11, ptr %8, align 8
  %12 = load i32, ptr %4, align 8
  %13 = icmp slt i32 %12, %1
  br i1 %13, label %.lr.ph.preheader, label %._crit_edge

.lr.ph.preheader:                                 ; preds = %7
  %14 = sext i32 %12 to i64
  br label %.lr.ph

.lr.ph:                                           ; preds = %.lr.ph.preheader, %.lr.ph
  %indvars.iv = phi i64 [ %14, %.lr.ph.preheader ], [ %indvars.iv.next, %.lr.ph ]
  %15 = load ptr, ptr %8, align 8
  %16 = getelementptr inbounds %struct.t_enxsubblock, ptr %15, i64 %indvars.iv
  store i32 0, ptr %16, align 8
  %17 = getelementptr inbounds i8, ptr %16, i64 4
  store i32 1, ptr %17, align 4
  %18 = getelementptr inbounds i8, ptr %16, i64 8
  tail call void @llvm.memset.p0.i64(ptr noundef nonnull align 8 dereferenceable(72) %18, i8 0, i64 72, i1 false)
  %indvars.iv.next = add nsw i64 %indvars.iv, 1
  %exitcond.not = icmp eq i64 %indvars.iv.next, %9
  br i1 %exitcond.not, label %._crit_edge, label %.lr.ph, !llvm.loop !11

._crit_edge:                                      ; preds = %.lr.ph, %7
  store i32 %1, ptr %4, align 8
  br label %19

19:                                               ; preds = %._crit_edge, %2
  ret void
}